target datalayout = "e-m:e-p270:32:32-p271:32:32-p272:64:64-i64:64-i128:128-f80:128-n8:16:32:64-S128"
target triple = "x86_64-pc-linux-gnu"

%"struct.Yosys::RTLIL::IdString" = type { i32 }
%"class.std::vector" = type { %"struct.std::_Vector_base" }
%"struct.std::_Vector_base" = type { %"struct.std::_Vector_base<int, std::allocator<int>>::_Vector_impl" }
%"struct.std::_Vector_base<int, std::allocator<int>>::_Vector_impl" = type { %"struct.std::_Vector_base<int, std::allocator<int>>::_Vector_impl_data" }
%"struct.std::_Vector_base<int, std::allocator<int>>::_Vector_impl_data" = type { ptr, ptr, ptr }
%"struct.Yosys::Mem" = type { %"struct.Yosys::RTLIL::AttrObject", ptr, %"struct.Yosys::RTLIL::IdString", i8, ptr, ptr, i32, i32, i32, %"class.std::vector.5", %"class.std::vector.10", %"class.std::vector.15" }
%"struct.Yosys::RTLIL::AttrObject" = type { %"class.Yosys::hashlib::dict" }
%"class.Yosys::hashlib::dict" = type <{ %"class.std::vector", %"class.std::vector.0", [8 x i8] }>
%"class.std::vector.0" = type { %"struct.std::_Vector_base.1" }
%"struct.std::_Vector_base.1" = type { %"struct.std::_Vector_base<Yosys::hashlib::dict<Yosys::RTLIL::IdString, Yosys::RTLIL::Const>::entry_t, std::allocator<Yosys::hashlib::dict<Yosys::RTLIL::IdString, Yosys::RTLIL::Const>::entry_t>>::_Vector_impl" }
%"struct.std::_Vector_base<Yosys::hashlib::dict<Yosys::RTLIL::IdString, Yosys::RTLIL::Const>::entry_t, std::allocator<Yosys::hashlib::dict<Yosys::RTLIL::IdString, Yosys::RTLIL::Const>::entry_t>>::_Vector_impl" = type { %"struct.std::_Vector_base<Yosys::hashlib::dict<Yosys::RTLIL::IdString, Yosys::RTLIL::Const>::entry_t, std::allocator<Yosys::hashlib::dict<Yosys::RTLIL::IdString, Yosys::RTLIL::Const>::entry_t>>::_Vector_impl_data" }
%"struct.std::_Vector_base<Yosys::hashlib::dict<Yosys::RTLIL::IdString, Yosys::RTLIL::Const>::entry_t, std::allocator<Yosys::hashlib::dict<Yosys::RTLIL::IdString, Yosys::RTLIL::Const>::entry_t>>::_Vector_impl_data" = type { ptr, ptr, ptr }
%"class.std::vector.5" = type { %"struct.std::_Vector_base.6" }
%"struct.std::_Vector_base.6" = type { %"struct.std::_Vector_base<Yosys::MemInit, std::allocator<Yosys::MemInit>>::_Vector_impl" }
%"struct.std::_Vector_base<Yosys::MemInit, std::allocator<Yosys::MemInit>>::_Vector_impl" = type { %"struct.std::_Vector_base<Yosys::MemInit, std::allocator<Yosys::MemInit>>::_Vector_impl_data" }
%"struct.std::_Vector_base<Yosys::MemInit, std::allocator<Yosys::MemInit>>::_Vector_impl_data" = type { ptr, ptr, ptr }
%"class.std::vector.10" = type { %"struct.std::_Vector_base.11" }
%"struct.std::_Vector_base.11" = type { %"struct.std::_Vector_base<Yosys::MemRd, std::allocator<Yosys::MemRd>>::_Vector_impl" }
%"struct.std::_Vector_base<Yosys::MemRd, std::allocator<Yosys::MemRd>>::_Vector_impl" = type { %"struct.std::_Vector_base<Yosys::MemRd, std::allocator<Yosys::MemRd>>::_Vector_impl_data" }
%"struct.std::_Vector_base<Yosys::MemRd, std::allocator<Yosys::MemRd>>::_Vector_impl_data" = type { ptr, ptr, ptr }
%"class.std::vector.15" = type { %"struct.std::_Vector_base.16" }
%"struct.std::_Vector_base.16" = type { %"struct.std::_Vector_base<Yosys::MemWr, std::allocator<Yosys::MemWr>>::_Vector_impl" }
%"struct.std::_Vector_base<Yosys::MemWr, std::allocator<Yosys::MemWr>>::_Vector_impl" = type { %"struct.std::_Vector_base<Yosys::MemWr, std::allocator<Yosys::MemWr>>::_Vector_impl_data" }
%"struct.std::_Vector_base<Yosys::MemWr, std::allocator<Yosys::MemWr>>::_Vector_impl_data" = type { ptr, ptr, ptr }

; Function Attrs: mustprogress nounwind uwtable
define void @_ZN5Yosys3Mem10widen_prepEi(ptr noundef nonnull align 8 dereferenceable(176) %0, i32 noundef %1) #8 align 2 {
  %3 = alloca ptr, align 8
  %4 = alloca i32, align 4
  %5 = alloca i32, align 4
  %6 = alloca i32, align 4
  store ptr %0, ptr %3, align 8, !tbaa !6
  store i32 %1, ptr %4, align 4, !tbaa !89
  %7 = load ptr, ptr %3, align 8
  call void @llvm.lifetime.start.p0(i64 4, ptr %5) #3
  %8 = load i32, ptr %4, align 4, !tbaa !89
  %9 = shl i32 1, %8
  %10 = sub nsw i32 %9, 1
  store i32 %10, ptr %5, align 4, !tbaa !89
  call void @llvm.lifetime.start.p0(i64 4, ptr %6) #3
  %11 = getelementptr inbounds nuw %"struct.Yosys::Mem", ptr %7, i32 0, i32 7
  %12 = load i32, ptr %11, align 4, !tbaa !119
  %13 = load i32, ptr %5, align 4, !tbaa !89
  %14 = and i32 %12, %13
  store i32 %14, ptr %6, align 4, !tbaa !89
  %15 = load i32, ptr %6, align 4, !tbaa !89
  %16 = getelementptr inbounds nuw %"struct.Yosys::Mem", ptr %7, i32 0, i32 7
  %17 = load i32, ptr %16, align 4, !tbaa !119
  %18 = sub nsw i32 %17, %15
  store i32 %18, ptr %16, align 4, !tbaa !119
  %19 = load i32, ptr %6, align 4, !tbaa !89
  %20 = getelementptr inbounds nuw %"struct.Yosys::Mem", ptr %7, i32 0, i32 8
  %21 = load i32, ptr %20, align 8, !tbaa !120
  %22 = add nsw i32 %21, %19
  store i32 %22, ptr %20, align 8, !tbaa !120
  %23 = getelementptr inbounds nuw %"struct.Yosys::Mem", ptr %7, i32 0, i32 8
  %24 = load i32, ptr %23, align 8, !tbaa !120
  %25 = load i32, ptr %5, align 4, !tbaa !89
  %26 = and i32 %24, %25
  %27 = icmp ne i32 %26, 0
  br i1 %27, label %28, label %36

28:                                               ; preds = %2
  %29 = load i32, ptr %5, align 4, !tbaa !89
  %30 = getelementptr inbounds nuw %"struct.Yosys::Mem", ptr %7, i32 0, i32 8
  %31 = load i32, ptr %30, align 8, !tbaa !120
  %32 = or i32 %31, %29
  store i32 %32, ptr %30, align 8, !tbaa !120
  %33 = getelementptr inbounds nuw %"struct.Yosys::Mem", ptr %7, i32 0, i32 8
  %34 = load i32, ptr %33, align 8, !tbaa !120
  %35 = add nsw i32 %34, 1
  store i32 %35, ptr %33, align 8, !tbaa !120
  br label %36

36:                                               ; preds = %28, %2
  call void @llvm.lifetime.end.p0(i64 4, ptr %6) #3
  call void @llvm.lifetime.end.p0(i64 4, ptr %5) #3
  ret void
}