; Function Attrs: mustprogress nofree norecurse nosync nounwind willreturn memory(argmem: readwrite) uwtable
define void @_ZN5Yosys3Mem10widen_prepEi(ptr noundef nonnull align 8 captures(none) dereferenceable(176) %0, i32 noundef %1) local_unnamed_addr #13 align 2 {
  %notmask = shl nsw i32 -1, %1
  %3 = xor i32 %notmask, -1
  %4 = getelementptr inbounds nuw i8, ptr %0, i64 92
  %5 = load i32, ptr %4, align 4, !tbaa !139
  %6 = and i32 %5, %3
  %7 = sub nsw i32 %5, %6
  store i32 %7, ptr %4, align 4, !tbaa !139
  %8 = getelementptr inbounds nuw i8, ptr %0, i64 96
  %9 = load i32, ptr %8, align 8, !tbaa !140
  %10 = add nsw i32 %9, %6
  %11 = and i32 %10, %3
  %.not = icmp eq i32 %11, 0
  %12 = or i32 %10, %3
  %13 = add nsw i32 %12, 1
  %storemerge = select i1 %.not, i32 %10, i32 %13
  store i32 %storemerge, ptr %8, align 8, !tbaa !140
  ret void
}